target datalayout = "e-m:e-p270:32:32-p271:32:32-p272:64:64-i64:64-i128:128-f80:128-n8:16:32:64-S128"
target triple = "x86_64-pc-linux-gnu"

%struct.formnode = type { i16, i16, i16, i32, i32, i32, i32, i16, i16, i16, i32, ptr, ptr, ptr, ptr, ptr, ptr, ptr, ptr, ptr, ptr, ptr }
%struct.fieldnode = type { i16, i16, i16, i16, i16, i32, i32, i32, i32, i16, i16, i16, i16, i32, i32, i32, i32, ptr, ptr, ptr, ptr, ptr, ptr, ptr, ptr }
%struct._PAGE = type { i16, i16, i16, i16 }

@stdscr = external global ptr, align 8

; Function Attrs: nounwind uwtable
define internal ptr @Next_Field_On_Page(ptr noundef %0) #0 {
  %2 = alloca ptr, align 8
  %3 = alloca ptr, align 8
  %4 = alloca ptr, align 8
  %5 = alloca ptr, align 8
  %6 = alloca ptr, align 8
  store ptr %0, ptr %2, align 8, !tbaa !17
  call void @llvm.lifetime.start.p0(i64 8, ptr %3) #9
  %7 = load ptr, ptr %2, align 8, !tbaa !17
  %8 = getelementptr inbounds nuw %struct.fieldnode, ptr %7, i32 0, i32 20
  %9 = load ptr, ptr %8, align 8, !tbaa !46
  store ptr %9, ptr %3, align 8, !tbaa !4
  call void @llvm.lifetime.start.p0(i64 8, ptr %4) #9
  %10 = load ptr, ptr %3, align 8, !tbaa !4
  %11 = getelementptr inbounds nuw %struct.formnode, ptr %10, i32 0, i32 14
  %12 = load ptr, ptr %11, align 8, !tbaa !63
  %13 = load ptr, ptr %2, align 8, !tbaa !17
  %14 = getelementptr inbounds nuw %struct.fieldnode, ptr %13, i32 0, i32 12
  %15 = load i16, ptr %14, align 2, !tbaa !88
  %16 = sext i16 %15 to i64
  %17 = getelementptr inbounds ptr, ptr %12, i64 %16
  store ptr %17, ptr %4, align 8, !tbaa !87
  call void @llvm.lifetime.start.p0(i64 8, ptr %5) #9
  %18 = load ptr, ptr %3, align 8, !tbaa !4
  %19 = getelementptr inbounds nuw %struct.formnode, ptr %18, i32 0, i32 14
  %20 = load ptr, ptr %19, align 8, !tbaa !63
  %21 = load ptr, ptr %3, align 8, !tbaa !4
  %22 = getelementptr inbounds nuw %struct.formnode, ptr %21, i32 0, i32 16
  %23 = load ptr, ptr %22, align 8, !tbaa !84
  %24 = load ptr, ptr %3, align 8, !tbaa !4
  %25 = getelementptr inbounds nuw %struct.formnode, ptr %24, i32 0, i32 9
  %26 = load i16, ptr %25, align 4, !tbaa !49
  %27 = sext i16 %26 to i64
  %28 = getelementptr inbounds %struct._PAGE, ptr %23, i64 %27
  %29 = getelementptr inbounds nuw %struct._PAGE, ptr %28, i32 0, i32 0
  %30 = load i16, ptr %29, align 2, !tbaa !89
  %31 = sext i16 %30 to i64
  %32 = getelementptr inbounds ptr, ptr %20, i64 %31
  store ptr %32, ptr %5, align 8, !tbaa !87
  call void @llvm.lifetime.start.p0(i64 8, ptr %6) #9
  %33 = load ptr, ptr %3, align 8, !tbaa !4
  %34 = getelementptr inbounds nuw %struct.formnode, ptr %33, i32 0, i32 14
  %35 = load ptr, ptr %34, align 8, !tbaa !63
  %36 = load ptr, ptr %3, align 8, !tbaa !4
  %37 = getelementptr inbounds nuw %struct.formnode, ptr %36, i32 0, i32 16
  %38 = load ptr, ptr %37, align 8, !tbaa !84
  %39 = load ptr, ptr %3, align 8, !tbaa !4
  %40 = getelementptr inbounds nuw %struct.formnode, ptr %39, i32 0, i32 9
  %41 = load i16, ptr %40, align 4, !tbaa !49
  %42 = sext i16 %41 to i64
  %43 = getelementptr inbounds %struct._PAGE, ptr %38, i64 %42
  %44 = getelementptr inbounds nuw %struct._PAGE, ptr %43, i32 0, i32 1
  %45 = load i16, ptr %44, align 2, !tbaa !85
  %46 = sext i16 %45 to i64
  %47 = getelementptr inbounds ptr, ptr %35, i64 %46
  store ptr %47, ptr %6, align 8, !tbaa !87
  br label %48

48:                                               ; preds = %67, %1
  %49 = load ptr, ptr %4, align 8, !tbaa !87
  %50 = load ptr, ptr %6, align 8, !tbaa !87
  %51 = icmp eq ptr %49, %50
  br i1 %51, label %52, label %54

52:                                               ; preds = %48
  %53 = load ptr, ptr %5, align 8, !tbaa !87
  br label %57

54:                                               ; preds = %48
  %55 = load ptr, ptr %4, align 8, !tbaa !87
  %56 = getelementptr inbounds ptr, ptr %55, i64 1
  br label %57

57:                                               ; preds = %54, %52
  %58 = phi ptr [ %53, %52 ], [ %56, %54 ]
  store ptr %58, ptr %4, align 8, !tbaa !87
  %59 = load ptr, ptr %4, align 8, !tbaa !87
  %60 = load ptr, ptr %59, align 8, !tbaa !17
  %61 = getelementptr inbounds nuw %struct.fieldnode, ptr %60, i32 0, i32 16
  %62 = load i32, ptr %61, align 8, !tbaa !23
  %63 = and i32 %62, 3
  %64 = icmp eq i32 %63, 3
  br i1 %64, label %65, label %66

65:                                               ; preds = %57
  br label %72

66:                                               ; preds = %57
  br label %67

67:                                               ; preds = %66
  %68 = load ptr, ptr %2, align 8, !tbaa !17
  %69 = load ptr, ptr %4, align 8, !tbaa !87
  %70 = load ptr, ptr %69, align 8, !tbaa !17
  %71 = icmp ne ptr %68, %70
  br i1 %71, label %48, label %72, !llvm.loop !91

72:                                               ; preds = %67, %65
  %73 = load ptr, ptr %4, align 8, !tbaa !87
  %74 = load ptr, ptr %73, align 8, !tbaa !17
  call void @llvm.lifetime.end.p0(i64 8, ptr %6) #9
  call void @llvm.lifetime.end.p0(i64 8, ptr %5) #9
  call void @llvm.lifetime.end.p0(i64 8, ptr %4) #9
  call void @llvm.lifetime.end.p0(i64 8, ptr %3) #9
  ret ptr %74
}

; Function Attrs: nounwind uwtable
define internal i32 @FN_First_Field(ptr noundef %0) #0 {
  %2 = alloca ptr, align 8
  store ptr %0, ptr %2, align 8, !tbaa !4
  %3 = load ptr, ptr %2, align 8, !tbaa !4
  %4 = load ptr, ptr %2, align 8, !tbaa !4
  %5 = getelementptr inbounds nuw %struct.formnode, ptr %4, i32 0, i32 14
  %6 = load ptr, ptr %5, align 8, !tbaa !63
  %7 = load ptr, ptr %2, align 8, !tbaa !4
  %8 = getelementptr inbounds nuw %struct.formnode, ptr %7, i32 0, i32 16
  %9 = load ptr, ptr %8, align 8, !tbaa !84
  %10 = load ptr, ptr %2, align 8, !tbaa !4
  %11 = getelementptr inbounds nuw %struct.formnode, ptr %10, i32 0, i32 9
  %12 = load i16, ptr %11, align 4, !tbaa !49
  %13 = sext i16 %12 to i64
  %14 = getelementptr inbounds %struct._PAGE, ptr %9, i64 %13
  %15 = getelementptr inbounds nuw %struct._PAGE, ptr %14, i32 0, i32 1
  %16 = load i16, ptr %15, align 2, !tbaa !85
  %17 = sext i16 %16 to i64
  %18 = getelementptr inbounds ptr, ptr %6, i64 %17
  %19 = load ptr, ptr %18, align 8, !tbaa !17
  %20 = call ptr @Next_Field_On_Page(ptr noundef %19)
  %21 = call i32 @_nc_Set_Current_Field(ptr noundef %3, ptr noundef %20)
  ret i32 %21
}

; Function Attrs: nounwind uwtable
define dso_local i32 @_nc_Set_Form_Page(ptr noundef %0, i32 noundef %1, ptr noundef %2) #0 {
  %4 = alloca i32, align 4
  %5 = alloca ptr, align 8
  %6 = alloca i32, align 4
  %7 = alloca ptr, align 8
  %8 = alloca i32, align 4
  %9 = alloca ptr, align 8
  %10 = alloca ptr, align 8
  %11 = alloca i32, align 4
  store ptr %0, ptr %5, align 8, !tbaa !4
  store i32 %1, ptr %6, align 4, !tbaa !35
  store ptr %2, ptr %7, align 8, !tbaa !17
  call void @llvm.lifetime.start.p0(i64 4, ptr %8) #9
  store i32 0, ptr %8, align 4, !tbaa !35
  %12 = load ptr, ptr %5, align 8, !tbaa !4
  %13 = getelementptr inbounds nuw %struct.formnode, ptr %12, i32 0, i32 9
  %14 = load i16, ptr %13, align 4, !tbaa !49
  %15 = sext i16 %14 to i32
  %16 = load i32, ptr %6, align 4, !tbaa !35
  %17 = icmp ne i32 %15, %16
  br i1 %17, label %18, label %96

18:                                               ; preds = %3
  call void @llvm.lifetime.start.p0(i64 8, ptr %9) #9
  call void @llvm.lifetime.start.p0(i64 8, ptr %10) #9
  %19 = load ptr, ptr %5, align 8, !tbaa !4
  %20 = getelementptr inbounds nuw %struct.formnode, ptr %19, i32 0, i32 12
  %21 = load ptr, ptr %20, align 8, !tbaa !18
  %22 = icmp ne ptr %21, null
  br i1 %22, label %23, label %27

23:                                               ; preds = %18
  %24 = load ptr, ptr %5, align 8, !tbaa !4
  %25 = getelementptr inbounds nuw %struct.formnode, ptr %24, i32 0, i32 12
  %26 = load ptr, ptr %25, align 8, !tbaa !18
  br label %40

27:                                               ; preds = %18
  %28 = load ptr, ptr %5, align 8, !tbaa !4
  %29 = getelementptr inbounds nuw %struct.formnode, ptr %28, i32 0, i32 11
  %30 = load ptr, ptr %29, align 8, !tbaa !19
  %31 = icmp ne ptr %30, null
  br i1 %31, label %32, label %36

32:                                               ; preds = %27
  %33 = load ptr, ptr %5, align 8, !tbaa !4
  %34 = getelementptr inbounds nuw %struct.formnode, ptr %33, i32 0, i32 11
  %35 = load ptr, ptr %34, align 8, !tbaa !19
  br label %38

36:                                               ; preds = %27
  %37 = load ptr, ptr @stdscr, align 8, !tbaa !20
  br label %38

38:                                               ; preds = %36, %32
  %39 = phi ptr [ %35, %32 ], [ %37, %36 ]
  br label %40

40:                                               ; preds = %38, %23
  %41 = phi ptr [ %26, %23 ], [ %39, %38 ]
  %42 = call i32 @werase(ptr noundef %41)
  %43 = load i32, ptr %6, align 4, !tbaa !35
  %44 = trunc i32 %43 to i16
  %45 = load ptr, ptr %5, align 8, !tbaa !4
  %46 = getelementptr inbounds nuw %struct.formnode, ptr %45, i32 0, i32 9
  store i16 %44, ptr %46, align 4, !tbaa !49
  %47 = load ptr, ptr %5, align 8, !tbaa !4
  %48 = getelementptr inbounds nuw %struct.formnode, ptr %47, i32 0, i32 14
  %49 = load ptr, ptr %48, align 8, !tbaa !63
  %50 = load ptr, ptr %5, align 8, !tbaa !4
  %51 = getelementptr inbounds nuw %struct.formnode, ptr %50, i32 0, i32 16
  %52 = load ptr, ptr %51, align 8, !tbaa !84
  %53 = load i32, ptr %6, align 4, !tbaa !35
  %54 = sext i32 %53 to i64
  %55 = getelementptr inbounds %struct._PAGE, ptr %52, i64 %54
  %56 = getelementptr inbounds nuw %struct._PAGE, ptr %55, i32 0, i32 2
  %57 = load i16, ptr %56, align 2, !tbaa !92
  %58 = sext i16 %57 to i64
  %59 = getelementptr inbounds ptr, ptr %49, i64 %58
  %60 = load ptr, ptr %59, align 8, !tbaa !17
  store ptr %60, ptr %10, align 8, !tbaa !17
  store ptr %60, ptr %9, align 8, !tbaa !17
  br label %61

61:                                               ; preds = %78, %40
  %62 = load ptr, ptr %10, align 8, !tbaa !17
  %63 = getelementptr inbounds nuw %struct.fieldnode, ptr %62, i32 0, i32 16
  %64 = load i32, ptr %63, align 8, !tbaa !23
  %65 = and i32 %64, 1
  %66 = icmp ne i32 %65, 0
  br i1 %66, label %67, label %74

67:                                               ; preds = %61
  %68 = load ptr, ptr %10, align 8, !tbaa !17
  %69 = call i32 @Display_Or_Erase_Field(ptr noundef %68, i1 noundef zeroext false)
  store i32 %69, ptr %8, align 4, !tbaa !35
  %70 = icmp ne i32 %69, 0
  br i1 %70, label %71, label %73

71:                                               ; preds = %67
  %72 = load i32, ptr %8, align 4, !tbaa !35
  store i32 %72, ptr %4, align 4
  store i32 1, ptr %11, align 4
  br label %93

73:                                               ; preds = %67
  br label %74

74:                                               ; preds = %73, %61
  %75 = load ptr, ptr %10, align 8, !tbaa !17
  %76 = getelementptr inbounds nuw %struct.fieldnode, ptr %75, i32 0, i32 17
  %77 = load ptr, ptr %76, align 8, !tbaa !93
  store ptr %77, ptr %10, align 8, !tbaa !17
  br label %78

78:                                               ; preds = %74
  %79 = load ptr, ptr %10, align 8, !tbaa !17
  %80 = load ptr, ptr %9, align 8, !tbaa !17
  %81 = icmp ne ptr %79, %80
  br i1 %81, label %61, label %82, !llvm.loop !94

82:                                               ; preds = %78
  %83 = load ptr, ptr %7, align 8, !tbaa !17
  %84 = icmp ne ptr %83, null
  br i1 %84, label %85, label %89

85:                                               ; preds = %82
  %86 = load ptr, ptr %5, align 8, !tbaa !4
  %87 = load ptr, ptr %7, align 8, !tbaa !17
  %88 = call i32 @_nc_Set_Current_Field(ptr noundef %86, ptr noundef %87)
  store i32 %88, ptr %8, align 4, !tbaa !35
  br label %92

89:                                               ; preds = %82
  %90 = load ptr, ptr %5, align 8, !tbaa !4
  %91 = call i32 @FN_First_Field(ptr noundef %90)
  store i32 %91, ptr %8, align 4, !tbaa !35
  br label %92

92:                                               ; preds = %89, %85
  store i32 0, ptr %11, align 4
  br label %93

93:                                               ; preds = %92, %71
  call void @llvm.lifetime.end.p0(i64 8, ptr %10) #9
  call void @llvm.lifetime.end.p0(i64 8, ptr %9) #9
  %94 = load i32, ptr %11, align 4
  switch i32 %94, label %98 [
    i32 0, label %95
  ]

95:                                               ; preds = %93
  br label %96

96:                                               ; preds = %95, %3
  %97 = load i32, ptr %8, align 4, !tbaa !35
  store i32 %97, ptr %4, align 4
  store i32 1, ptr %11, align 4
  br label %98

98:                                               ; preds = %96, %93
  call void @llvm.lifetime.end.p0(i64 4, ptr %8) #9
  %99 = load i32, ptr %4, align 4
  ret i32 %99
}