; Function Attrs: nounwind uwtable
define dso_local range(i32 -11, 1) i32 @_nc_Set_Form_Page(ptr noundef %0, i32 noundef %1, ptr noundef %2) local_unnamed_addr #0 {
  %4 = getelementptr inbounds nuw i8, ptr %0, i64 28
  %5 = load i16, ptr %4, align 4, !tbaa !47
  %6 = sext i16 %5 to i32
  %.not = icmp eq i32 %1, %6
  br i1 %.not, label %.loopexit, label %7

7:                                                ; preds = %3
  %8 = getelementptr inbounds nuw i8, ptr %0, i64 48
  %9 = load ptr, ptr %8, align 8, !tbaa !15
  %.not33 = icmp eq ptr %9, null
  br i1 %.not33, label %10, label %14

10:                                               ; preds = %7
  %11 = getelementptr inbounds nuw i8, ptr %0, i64 40
  %12 = load ptr, ptr %11, align 8, !tbaa !16
  %.not34 = icmp eq ptr %12, null
  %13 = load ptr, ptr @stdscr, align 8
  %spec.select = select i1 %.not34, ptr %13, ptr %12
  br label %14

14:                                               ; preds = %10, %7
  %15 = phi ptr [ %9, %7 ], [ %spec.select, %10 ]
  %16 = tail call i32 @werase(ptr noundef %15) #13
  %17 = trunc i32 %1 to i16
  store i16 %17, ptr %4, align 4, !tbaa !47
  %18 = getelementptr inbounds nuw i8, ptr %0, i64 64
  %19 = load ptr, ptr %18, align 8, !tbaa !62
  %20 = getelementptr inbounds nuw i8, ptr %0, i64 80
  %21 = load ptr, ptr %20, align 8, !tbaa !78
  %22 = sext i32 %1 to i64
  %23 = getelementptr inbounds %struct._PAGE, ptr %21, i64 %22, i32 2
  %24 = load i16, ptr %23, align 2, !tbaa !86
  %25 = sext i16 %24 to i64
  %26 = getelementptr inbounds ptr, ptr %19, i64 %25
  %27 = load ptr, ptr %26, align 8, !tbaa !81
  br label %28

28:                                               ; preds = %34, %14
  %.023 = phi ptr [ %27, %14 ], [ %36, %34 ]
  %29 = getelementptr inbounds nuw i8, ptr %.023, i64 48
  %30 = load i32, ptr %29, align 8, !tbaa !19
  %31 = and i32 %30, 1
  %.not35 = icmp eq i32 %31, 0
  br i1 %.not35, label %34, label %32

32:                                               ; preds = %28
  %33 = tail call fastcc i32 @Display_Or_Erase_Field(ptr noundef nonnull %.023, i1 noundef zeroext false)
  %.not36 = icmp eq i32 %33, 0
  br i1 %.not36, label %34, label %.loopexit

34:                                               ; preds = %32, %28
  %35 = getelementptr inbounds nuw i8, ptr %.023, i64 56
  %36 = load ptr, ptr %35, align 8, !tbaa !87
  %.not37 = icmp eq ptr %36, %27
  br i1 %.not37, label %37, label %28, !llvm.loop !88

37:                                               ; preds = %34
  %.not38 = icmp eq ptr %2, null
  br i1 %.not38, label %38, label %.loopexit.sink.split

38:                                               ; preds = %37
  %39 = load ptr, ptr %18, align 8, !tbaa !62
  %40 = load ptr, ptr %20, align 8, !tbaa !78
  %41 = load i16, ptr %4, align 4, !tbaa !47
  %42 = sext i16 %41 to i64
  %43 = getelementptr inbounds %struct._PAGE, ptr %40, i64 %42, i32 1
  %44 = load i16, ptr %43, align 2, !tbaa !79
  %45 = sext i16 %44 to i64
  %46 = getelementptr inbounds ptr, ptr %39, i64 %45
  %47 = load ptr, ptr %46, align 8, !tbaa !81
  %48 = getelementptr inbounds nuw i8, ptr %47, i64 80
  %49 = load ptr, ptr %48, align 8, !tbaa !44
  %50 = getelementptr inbounds nuw i8, ptr %49, i64 64
  %51 = load ptr, ptr %50, align 8, !tbaa !62
  %52 = getelementptr inbounds nuw i8, ptr %47, i64 34
  %53 = load i16, ptr %52, align 2, !tbaa !82
  %54 = sext i16 %53 to i64
  %55 = getelementptr inbounds ptr, ptr %51, i64 %54
  %56 = getelementptr inbounds nuw i8, ptr %49, i64 80
  %57 = load ptr, ptr %56, align 8, !tbaa !78
  %58 = getelementptr inbounds nuw i8, ptr %49, i64 28
  %59 = load i16, ptr %58, align 4, !tbaa !47
  %60 = sext i16 %59 to i64
  %61 = getelementptr inbounds %struct._PAGE, ptr %57, i64 %60
  %62 = load i16, ptr %61, align 2, !tbaa !83
  %63 = sext i16 %62 to i64
  %64 = getelementptr inbounds ptr, ptr %51, i64 %63
  %65 = getelementptr inbounds nuw i8, ptr %61, i64 2
  %66 = load i16, ptr %65, align 2, !tbaa !79
  %67 = sext i16 %66 to i64
  %68 = getelementptr inbounds ptr, ptr %51, i64 %67
  br label %69

69:                                               ; preds = %69, %38
  %.0.i.i = phi ptr [ %55, %38 ], [ %72, %69 ]
  %70 = icmp eq ptr %.0.i.i, %68
  %71 = getelementptr inbounds nuw i8, ptr %.0.i.i, i64 8
  %72 = select i1 %70, ptr %64, ptr %71
  %73 = load ptr, ptr %72, align 8, !tbaa !81
  %74 = getelementptr inbounds nuw i8, ptr %73, i64 48
  %75 = load i32, ptr %74, align 8, !tbaa !19
  %76 = and i32 %75, 3
  %77 = icmp eq i32 %76, 3
  %.not.i.i = icmp eq ptr %47, %73
  %or.cond.i.i = or i1 %.not.i.i, %77
  br i1 %or.cond.i.i, label %.loopexit.sink.split, label %69, !llvm.loop !84

.loopexit.sink.split:                             ; preds = %69, %37
  %.lcssa.sink = phi ptr [ %2, %37 ], [ %73, %69 ]
  %78 = tail call i32 @_nc_Set_Current_Field(ptr noundef %0, ptr noundef nonnull %.lcssa.sink)
  br label %.loopexit

.loopexit:                                        ; preds = %32, %.loopexit.sink.split, %3
  %.1 = phi i32 [ 0, %3 ], [ %78, %.loopexit.sink.split ], [ -1, %32 ]
  ret i32 %.1
}